(lp0
(lp1
(lp2
S'dog'
p3
aS'canine'
p4
aa(lp5
S'wolf'
p6
aS'canine'
p7
aa(lp8
S'tiger'
p9
aS'cat'
p10
aa(lp11
S'cheetah'
p12
aS'cat'
p13
aa(lp14
S'parrot'
p15
aS'bird'
p16
aa(lp17
S'chimpanzee'
p18
aS'ape'
p19
aa(lp20
S'camel'
p21
aS'dromedary'
p22
aa(lp23
S'mouse'
p24
aS'rodent'
p25
aaa(lp26
(lp27
S'fish'
p28
aS'sea'
p29
aa(lp30
S'birds'
p31
aS'air'
p32
aa(lp33
S'birds'
p34
aS'sky'
p35
aa(lp36
S'dog'
p37
aS'land'
p38
aa(lp39
S'cat'
p40
aS'house'
p41
aa(lp42
S'horse'
p43
aS'farm'
p44
aa(lp45
S'cow'
p46
aS'barn'
p47
aa(lp48
S'chicken'
p49
aS'coop'
p50
aaa(lp51
(lp52
S'sculpture'
p53
aS'stone'
p54
aa(lp55
S'painting'
p56
aS'canvas'
p57
aa(lp58
S'carving'
p59
aS'wood'
p60
aa(lp61
S'drawing'
p62
aS'paper'
p63
aaa(lp64
(lp65
S'electron'
p66
aS'nucleus'
p67
aa(lp68
S'moon'
p69
aS'earth'
p70
aa(lp71
S'planet'
p72
aS'sun'
p73
aaa(lp74
(lp75
S'giant'
p76
aS'dwarf'
p77
aa(lp78
S'black'
p79
aS'white'
p80
aa(lp81
S'pond'
p82
aS'ocean'
p83
aa(lp84
S'mountain'
p85
aS'mole hill'
p86
aa(lp87
S'shout'
p88
aS'whisper'
p89
aa(lp90
S'storm'
p91
aS'calm'
p92
aa(lp93
S'danger'
p94
aS'safety'
p95
aaa(lp96
(lp97
S'judge'
p98
aS'court'
p99
aa(lp100
S'fireman'
p101
aS'fire station'
p102
aa(lp103
S'policeman'
p104
aS'police station'
p105
aa(lp106
S'doctor'
p107
aS'hospital'
p108
aa(lp109
S'lumberjack'
p110
aS'forest'
p111
aa(lp112
S'teacher'
p113
aS'school'
p114
aa(lp115
S'professor'
p116
aS'university'
p117
aa(lp118
S'scientist'
p119
aS'lab'
p120
aaa(lp121
(lp122
S'sapphire'
p123
aS'gem'
p124
aa(lp125
S'milk'
p126
aS'drink'
p127
aa(lp128
S'german'
p129
aS'ethnicity'
p130
aa(lp131
S'chair'
p132
aS'furnature'
p133
aa(lp134
S'euro'
p135
aS'currency'
p136
aa(lp137
S'fork'
p138
aS'utensil'
p139
aa(lp140
S'red'
p141
aS'color'
p142
aa(lp143
S'cup'
p144
aS'container'
p145
aa(lp146
S'granite'
p147
aS'stone'
p148
aaa.