(((S'cat'
p0
S'house'
p1
tp2
(S'horse'
p3
S'farm'
p4
tp5
(S'cow'
p6
S'barn'
p7
tp8
(S'chicken'
p9
S'coop'
p10
tp11
tp12
((S'electron'
p13
S'nucleous'
p14
tp15
(S'moon'
p16
S'earth'
p17
tp18
(g16
S'planet'
p19
tp20
(g19
S'sun'
p21
tp22
tp23
((S'sculpture'
p24
S'stone'
p25
tp26
(g24
S'plaster'
p27
tp28
(S'painting'
p29
S'canvas'
p30
tp31
(S'carving'
p32
S'wood'
p33
tp34
(S'drawing'
p35
S'paper'
p36
tp37
tp38
tp39
.